; Function Attrs: mustprogress nofree norecurse nosync nounwind willreturn memory(argmem: write) uwtable
define dso_local void @_ZN4TypeC2E11eSimpleType(ptr nocapture noundef nonnull writeonly align 8 dereferenceable(136) %0, i32 noundef %1) unnamed_addr #9 align 2 {
  store i32 0, ptr %0, align 8
  %3 = getelementptr inbounds i8, ptr %0, i64 8
  store ptr null, ptr %3, align 8
  %4 = getelementptr inbounds i8, ptr %0, i64 16
  store i32 %1, ptr %4, align 8
  %5 = getelementptr inbounds i8, ptr %0, i64 24
  %6 = getelementptr inbounds i8, ptr %0, i64 88
  tail call void @llvm.memset.p0.i64(ptr noundef nonnull align 8 dereferenceable(57) %5, i8 0, i64 57, i1 false)
  tail call void @llvm.memset.p0.i64(ptr noundef nonnull align 8 dereferenceable(48) %6, i8 0, i64 48, i1 false)
  ret void
}